; Function Attrs: mustprogress uwtable
define void @_ZN2cv4gapi3own10ThreadPool6workerERNS1_24concurrent_bounded_queueISt8functionIFvvEEEE(ptr noundef nonnull align 8 dereferenceable(224) %0) #2 align 2 personality ptr @__gxx_personality_v0 {
  %2 = alloca %"class.std::function", align 8
  %3 = getelementptr inbounds nuw i8, ptr %2, i64 16
  %4 = getelementptr inbounds nuw i8, ptr %2, i64 24
  br label %5

5:                                                ; preds = %_ZNSt14_Function_baseD2Ev.exit6, %1
  call void @llvm.lifetime.start.p0(i64 32, ptr nonnull %2) #16
  call void @llvm.memset.p0.i64(ptr noundef nonnull align 8 dereferenceable(32) %2, i8 0, i64 32, i1 false)
  invoke void @_ZN2cv4gapi3own24concurrent_bounded_queueISt8functionIFvvEEE3popERS5_(ptr noundef nonnull align 8 dereferenceable(224) %0, ptr noundef nonnull align 8 dereferenceable(32) %2)
          to label %6 unwind label %8

6:                                                ; preds = %5
  %7 = load ptr, ptr %3, align 8, !tbaa !43
  %.not.i.i.not = icmp eq ptr %7, null
  br i1 %.not.i.i.not, label %23, label %16

8:                                                ; preds = %16, %5
  %9 = landingpad { ptr, i32 }
          cleanup
  %10 = load ptr, ptr %3, align 8, !tbaa !43
  %.not.i = icmp eq ptr %10, null
  br i1 %.not.i, label %_ZNSt14_Function_baseD2Ev.exit, label %11

11:                                               ; preds = %8
  %12 = invoke noundef zeroext i1 %10(ptr noundef nonnull align 8 dereferenceable(32) %2, ptr noundef nonnull align 8 dereferenceable(32) %2, i32 noundef 3)
          to label %_ZNSt14_Function_baseD2Ev.exit unwind label %13

13:                                               ; preds = %11
  %14 = landingpad { ptr, i32 }
          catch ptr null
  %15 = extractvalue { ptr, i32 } %14, 0
  call void @__clang_call_terminate(ptr %15) #20
  unreachable

_ZNSt14_Function_baseD2Ev.exit:                   ; preds = %8, %11
  call void @llvm.lifetime.end.p0(i64 32, ptr nonnull %2) #16
  resume { ptr, i32 } %9

16:                                               ; preds = %6
  %17 = load ptr, ptr %4, align 8, !tbaa !45
  invoke void %17(ptr noundef nonnull align 8 dereferenceable(32) %2)
          to label %_ZNKSt8functionIFvvEEclEv.exit unwind label %8

_ZNKSt8functionIFvvEEclEv.exit:                   ; preds = %16
  %.pr = load ptr, ptr %3, align 8, !tbaa !43
  %.not.i5 = icmp eq ptr %.pr, null
  br i1 %.not.i5, label %_ZNSt14_Function_baseD2Ev.exit6, label %18

18:                                               ; preds = %_ZNKSt8functionIFvvEEclEv.exit
  %19 = invoke noundef zeroext i1 %.pr(ptr noundef nonnull align 8 dereferenceable(32) %2, ptr noundef nonnull align 8 dereferenceable(32) %2, i32 noundef 3)
          to label %_ZNSt14_Function_baseD2Ev.exit6 unwind label %20

20:                                               ; preds = %18
  %21 = landingpad { ptr, i32 }
          catch ptr null
  %22 = extractvalue { ptr, i32 } %21, 0
  call void @__clang_call_terminate(ptr %22) #20
  unreachable

_ZNSt14_Function_baseD2Ev.exit6:                  ; preds = %_ZNKSt8functionIFvvEEclEv.exit, %18
  call void @llvm.lifetime.end.p0(i64 32, ptr nonnull %2) #16
  br label %5

23:                                               ; preds = %6
  call void @llvm.lifetime.end.p0(i64 32, ptr nonnull %2) #16
  ret void
}